; Function Attrs: mustprogress uwtable
define internal noundef zeroext i1 @_ZNK4base8internal12_GLOBAL__N_115JSONStringValue6EqualsEPKNS_5ValueE(ptr noundef nonnull align 8 dereferenceable(32) %this, ptr noundef %other) unnamed_addr #2 align 2 personality ptr @__gxx_personality_v0 {
entry:
  %other_string = alloca %"class.std::__cxx11::basic_string", align 8
  %ref.tmp = alloca %"class.base::BasicStringPiece", align 8
  call void @_ZNSt7__cxx1112basic_stringIcSt11char_traitsIcESaIcEEC1Ev(ptr noundef nonnull align 8 dereferenceable(32) %other_string) #17
  %type_.i = getelementptr inbounds i8, ptr %other, i64 8
  %0 = load i32, ptr %type_.i, align 8
  %cmp.i = icmp eq i32 %0, 4
  br i1 %cmp.i, label %land.lhs.true, label %land.end

land.lhs.true:                                    ; preds = %entry
  %vtable = load ptr, ptr %other, align 8
  %vfn = getelementptr inbounds i8, ptr %vtable, i64 40
  %1 = load ptr, ptr %vfn, align 8
  %call2 = invoke noundef zeroext i1 %1(ptr noundef nonnull align 8 dereferenceable(12) %other, ptr noundef nonnull %other_string)
          to label %invoke.cont unwind label %lpad

invoke.cont:                                      ; preds = %land.lhs.true
  br i1 %call2, label %land.rhs, label %land.end

land.rhs:                                         ; preds = %invoke.cont
  invoke void @_ZN4base16BasicStringPieceINSt7__cxx1112basic_stringIcSt11char_traitsIcESaIcEEEEC1ERKS6_(ptr noundef nonnull align 8 dereferenceable(16) %ref.tmp, ptr noundef nonnull align 8 dereferenceable(32) %other_string)
          to label %invoke.cont3 unwind label %lpad

invoke.cont3:                                     ; preds = %land.rhs
  %string_piece_ = getelementptr inbounds i8, ptr %this, i64 16
  %call5 = invoke noundef zeroext i1 @_ZN4baseeqERKNS_16BasicStringPieceINSt7__cxx1112basic_stringIcSt11char_traitsIcESaIcEEEEES9_(ptr noundef nonnull align 8 dereferenceable(16) %ref.tmp, ptr noundef nonnull align 8 dereferenceable(16) %string_piece_)
          to label %land.end unwind label %lpad

land.end:                                         ; preds = %invoke.cont3, %invoke.cont, %entry
  %2 = phi i1 [ false, %invoke.cont ], [ false, %entry ], [ %call5, %invoke.cont3 ]
  call void @_ZNSt7__cxx1112basic_stringIcSt11char_traitsIcESaIcEED1Ev(ptr noundef nonnull align 8 dereferenceable(32) %other_string) #17
  ret i1 %2

lpad:                                             ; preds = %invoke.cont3, %land.rhs, %land.lhs.true
  %3 = landingpad { ptr, i32 }
          cleanup
  call void @_ZNSt7__cxx1112basic_stringIcSt11char_traitsIcESaIcEED1Ev(ptr noundef nonnull align 8 dereferenceable(32) %other_string) #17
  resume { ptr, i32 } %3
}